(dp0
S'24'
p1
F1.0
sS'25'
p2
F1.0
sS'26'
p3
F1.0
sS'27'
p4
F1.0
sS'20'
p5
F1.0
sS'21'
p6
F1.0
sS'22'
p7
F1.0
sS'23'
p8
F1.0
sS'28'
p9
F1.0
sS'29'
p10
F1.0
sS'1'
p11
F0.12005444251860717
sS'3'
p12
F0.80811124321044769
sS'2'
p13
F0.43015139667300217
sS'5'
p14
F1.1792821248877223
sS'4'
p15
F1.0499043829232553
sS'7'
p16
F1.0811083737976941
sS'6'
p17
F1.1495278832419973
sS'9'
p18
F1.1569800584699328
sS'8'
p19
F1.1479322265518759
sS'11'
p20
F1.7700386436486126
sS'10'
p21
F1.3451959404239853
sS'13'
p22
F3.1643551226917239
sS'12'
p23
F2.3557470040186943
sS'15'
p24
F6.8423291146201741
sS'14'
p25
F5.1869606237502239
sS'17'
p26
F17.250300010577881
sS'16'
p27
F19.803198532227881
sS'19'
p28
F1.0
sS'18'
p29
F1.0
s.